target datalayout = "e-m:e-p270:32:32-p271:32:32-p272:64:64-i64:64-i128:128-f80:128-n8:16:32:64-S128"
target triple = "x86_64-pc-linux-gnu"

%class.SaveMeshAttributesDialog = type { %class.QDialog, ptr, ptr, i32, i32, i32, i32, %class.RichParameterList, %"class.std::vector.19", ptr, ptr }
%class.QDialog = type { %class.QWidget }
%class.QWidget = type { %class.QObject, %class.QPaintDevice, ptr }
%class.QObject = type { ptr, %class.QScopedPointer }
%class.QScopedPointer = type { ptr }
%class.QPaintDevice = type { ptr, i16, ptr }
%class.RichParameterList = type { %"class.std::__cxx11::list" }
%"class.std::__cxx11::list" = type { %"class.std::__cxx11::_List_base" }
%"class.std::__cxx11::_List_base" = type { %"struct.std::__cxx11::_List_base<RichParameter *, std::allocator<RichParameter *>>::_List_impl" }
%"struct.std::__cxx11::_List_base<RichParameter *, std::allocator<RichParameter *>>::_List_impl" = type { %"struct.std::__detail::_List_node_header" }
%"struct.std::__detail::_List_node_header" = type { %"struct.std::__detail::_List_node_base", i64 }
%"struct.std::__detail::_List_node_base" = type { ptr, ptr }
%"class.std::vector.19" = type { %"struct.std::_Vector_base.20" }
%"struct.std::_Vector_base.20" = type { %"struct.std::_Vector_base<std::__cxx11::basic_string<char>, std::allocator<std::__cxx11::basic_string<char>>>::_Vector_impl" }
%"struct.std::_Vector_base<std::__cxx11::basic_string<char>, std::allocator<std::__cxx11::basic_string<char>>>::_Vector_impl" = type { %"struct.std::_Vector_base<std::__cxx11::basic_string<char>, std::allocator<std::__cxx11::basic_string<char>>>::_Vector_impl_data" }
%"struct.std::_Vector_base<std::__cxx11::basic_string<char>, std::allocator<std::__cxx11::basic_string<char>>>::_Vector_impl_data" = type { ptr, ptr, ptr }
%class.Ui_SaveMeshAttributesDialog = type { ptr, ptr, ptr, ptr, ptr, ptr, ptr, ptr, ptr, ptr, ptr, ptr, ptr, ptr, ptr, ptr, ptr, ptr, ptr, ptr, ptr, ptr, ptr, ptr, ptr, ptr, ptr, ptr, ptr, ptr, ptr, ptr, ptr, ptr, ptr, ptr, ptr, ptr, ptr, ptr, ptr, ptr, ptr, ptr, ptr, ptr, ptr }

; Function Attrs: mustprogress uwtable
define void @_ZN24SaveMeshAttributesDialog10updateMaskEv(ptr noundef nonnull align 8 dereferenceable(144) %0) #5 align 2 {
  %2 = alloca ptr, align 8
  %3 = alloca i32, align 4
  store ptr %0, ptr %2, align 8
  %4 = load ptr, ptr %2, align 8
  store i32 0, ptr %3, align 4
  %5 = getelementptr inbounds %class.SaveMeshAttributesDialog, ptr %4, i32 0, i32 1
  %6 = load ptr, ptr %5, align 8
  %7 = getelementptr inbounds %class.Ui_SaveMeshAttributesDialog, ptr %6, i32 0, i32 4
  %8 = load ptr, ptr %7, align 8
  %9 = call noundef zeroext i1 @_ZNK15QAbstractButton9isCheckedEv(ptr noundef nonnull align 8 dereferenceable(48) %8)
  br i1 %9, label %10, label %13

10:                                               ; preds = %1
  %11 = load i32, ptr %3, align 4
  %12 = or i32 %11, 2
  store i32 %12, ptr %3, align 4
  br label %13

13:                                               ; preds = %10, %1
  %14 = getelementptr inbounds %class.SaveMeshAttributesDialog, ptr %4, i32 0, i32 1
  %15 = load ptr, ptr %14, align 8
  %16 = getelementptr inbounds %class.Ui_SaveMeshAttributesDialog, ptr %15, i32 0, i32 5
  %17 = load ptr, ptr %16, align 8
  %18 = call noundef zeroext i1 @_ZNK15QAbstractButton9isCheckedEv(ptr noundef nonnull align 8 dereferenceable(48) %17)
  br i1 %18, label %19, label %22

19:                                               ; preds = %13
  %20 = load i32, ptr %3, align 4
  %21 = or i32 %20, 4
  store i32 %21, ptr %3, align 4
  br label %22

22:                                               ; preds = %19, %13
  %23 = getelementptr inbounds %class.SaveMeshAttributesDialog, ptr %4, i32 0, i32 1
  %24 = load ptr, ptr %23, align 8
  %25 = getelementptr inbounds %class.Ui_SaveMeshAttributesDialog, ptr %24, i32 0, i32 6
  %26 = load ptr, ptr %25, align 8
  %27 = call noundef zeroext i1 @_ZNK15QAbstractButton9isCheckedEv(ptr noundef nonnull align 8 dereferenceable(48) %26)
  br i1 %27, label %28, label %31

28:                                               ; preds = %22
  %29 = load i32, ptr %3, align 4
  %30 = or i32 %29, 8
  store i32 %30, ptr %3, align 4
  br label %31

31:                                               ; preds = %28, %22
  %32 = getelementptr inbounds %class.SaveMeshAttributesDialog, ptr %4, i32 0, i32 1
  %33 = load ptr, ptr %32, align 8
  %34 = getelementptr inbounds %class.Ui_SaveMeshAttributesDialog, ptr %33, i32 0, i32 8
  %35 = load ptr, ptr %34, align 8
  %36 = call noundef zeroext i1 @_ZNK15QAbstractButton9isCheckedEv(ptr noundef nonnull align 8 dereferenceable(48) %35)
  br i1 %36, label %37, label %40

37:                                               ; preds = %31
  %38 = load i32, ptr %3, align 4
  %39 = or i32 %38, 32
  store i32 %39, ptr %3, align 4
  br label %40

40:                                               ; preds = %37, %31
  %41 = getelementptr inbounds %class.SaveMeshAttributesDialog, ptr %4, i32 0, i32 1
  %42 = load ptr, ptr %41, align 8
  %43 = getelementptr inbounds %class.Ui_SaveMeshAttributesDialog, ptr %42, i32 0, i32 7
  %44 = load ptr, ptr %43, align 8
  %45 = call noundef zeroext i1 @_ZNK15QAbstractButton9isCheckedEv(ptr noundef nonnull align 8 dereferenceable(48) %44)
  br i1 %45, label %46, label %49

46:                                               ; preds = %40
  %47 = load i32, ptr %3, align 4
  %48 = or i32 %47, 16
  store i32 %48, ptr %3, align 4
  br label %49

49:                                               ; preds = %46, %40
  %50 = getelementptr inbounds %class.SaveMeshAttributesDialog, ptr %4, i32 0, i32 1
  %51 = load ptr, ptr %50, align 8
  %52 = getelementptr inbounds %class.Ui_SaveMeshAttributesDialog, ptr %51, i32 0, i32 9
  %53 = load ptr, ptr %52, align 8
  %54 = call noundef zeroext i1 @_ZNK15QAbstractButton9isCheckedEv(ptr noundef nonnull align 8 dereferenceable(48) %53)
  br i1 %54, label %55, label %58

55:                                               ; preds = %49
  %56 = load i32, ptr %3, align 4
  %57 = or i32 %56, 65536
  store i32 %57, ptr %3, align 4
  br label %58

58:                                               ; preds = %55, %49
  %59 = getelementptr inbounds %class.SaveMeshAttributesDialog, ptr %4, i32 0, i32 1
  %60 = load ptr, ptr %59, align 8
  %61 = getelementptr inbounds %class.Ui_SaveMeshAttributesDialog, ptr %60, i32 0, i32 13
  %62 = load ptr, ptr %61, align 8
  %63 = call noundef zeroext i1 @_ZNK15QAbstractButton9isCheckedEv(ptr noundef nonnull align 8 dereferenceable(48) %62)
  br i1 %63, label %64, label %67

64:                                               ; preds = %58
  %65 = load i32, ptr %3, align 4
  %66 = or i32 %65, 128
  store i32 %66, ptr %3, align 4
  br label %67

67:                                               ; preds = %64, %58
  %68 = getelementptr inbounds %class.SaveMeshAttributesDialog, ptr %4, i32 0, i32 1
  %69 = load ptr, ptr %68, align 8
  %70 = getelementptr inbounds %class.Ui_SaveMeshAttributesDialog, ptr %69, i32 0, i32 14
  %71 = load ptr, ptr %70, align 8
  %72 = call noundef zeroext i1 @_ZNK15QAbstractButton9isCheckedEv(ptr noundef nonnull align 8 dereferenceable(48) %71)
  br i1 %72, label %73, label %76

73:                                               ; preds = %67
  %74 = load i32, ptr %3, align 4
  %75 = or i32 %74, 256
  store i32 %75, ptr %3, align 4
  br label %76

76:                                               ; preds = %73, %67
  %77 = getelementptr inbounds %class.SaveMeshAttributesDialog, ptr %4, i32 0, i32 1
  %78 = load ptr, ptr %77, align 8
  %79 = getelementptr inbounds %class.Ui_SaveMeshAttributesDialog, ptr %78, i32 0, i32 15
  %80 = load ptr, ptr %79, align 8
  %81 = call noundef zeroext i1 @_ZNK15QAbstractButton9isCheckedEv(ptr noundef nonnull align 8 dereferenceable(48) %80)
  br i1 %81, label %82, label %85

82:                                               ; preds = %76
  %83 = load i32, ptr %3, align 4
  %84 = or i32 %83, 512
  store i32 %84, ptr %3, align 4
  br label %85

85:                                               ; preds = %82, %76
  %86 = getelementptr inbounds %class.SaveMeshAttributesDialog, ptr %4, i32 0, i32 1
  %87 = load ptr, ptr %86, align 8
  %88 = getelementptr inbounds %class.Ui_SaveMeshAttributesDialog, ptr %87, i32 0, i32 16
  %89 = load ptr, ptr %88, align 8
  %90 = call noundef zeroext i1 @_ZNK15QAbstractButton9isCheckedEv(ptr noundef nonnull align 8 dereferenceable(48) %89)
  br i1 %90, label %91, label %94

91:                                               ; preds = %85
  %92 = load i32, ptr %3, align 4
  %93 = or i32 %92, 1024
  store i32 %93, ptr %3, align 4
  br label %94

94:                                               ; preds = %91, %85
  %95 = getelementptr inbounds %class.SaveMeshAttributesDialog, ptr %4, i32 0, i32 1
  %96 = load ptr, ptr %95, align 8
  %97 = getelementptr inbounds %class.Ui_SaveMeshAttributesDialog, ptr %96, i32 0, i32 20
  %98 = load ptr, ptr %97, align 8
  %99 = call noundef zeroext i1 @_ZNK15QAbstractButton9isCheckedEv(ptr noundef nonnull align 8 dereferenceable(48) %98)
  br i1 %99, label %100, label %103

100:                                              ; preds = %94
  %101 = load i32, ptr %3, align 4
  %102 = or i32 %101, 2048
  store i32 %102, ptr %3, align 4
  br label %103

103:                                              ; preds = %100, %94
  %104 = getelementptr inbounds %class.SaveMeshAttributesDialog, ptr %4, i32 0, i32 1
  %105 = load ptr, ptr %104, align 8
  %106 = getelementptr inbounds %class.Ui_SaveMeshAttributesDialog, ptr %105, i32 0, i32 22
  %107 = load ptr, ptr %106, align 8
  %108 = call noundef zeroext i1 @_ZNK15QAbstractButton9isCheckedEv(ptr noundef nonnull align 8 dereferenceable(48) %107)
  br i1 %108, label %109, label %112

109:                                              ; preds = %103
  %110 = load i32, ptr %3, align 4
  %111 = or i32 %110, 4096
  store i32 %111, ptr %3, align 4
  br label %112

112:                                              ; preds = %109, %103
  %113 = getelementptr inbounds %class.SaveMeshAttributesDialog, ptr %4, i32 0, i32 1
  %114 = load ptr, ptr %113, align 8
  %115 = getelementptr inbounds %class.Ui_SaveMeshAttributesDialog, ptr %114, i32 0, i32 21
  %116 = load ptr, ptr %115, align 8
  %117 = call noundef zeroext i1 @_ZNK15QAbstractButton9isCheckedEv(ptr noundef nonnull align 8 dereferenceable(48) %116)
  br i1 %117, label %118, label %121

118:                                              ; preds = %112
  %119 = load i32, ptr %3, align 4
  %120 = or i32 %119, 16384
  store i32 %120, ptr %3, align 4
  br label %121

121:                                              ; preds = %118, %112
  %122 = getelementptr inbounds %class.SaveMeshAttributesDialog, ptr %4, i32 0, i32 1
  %123 = load ptr, ptr %122, align 8
  %124 = getelementptr inbounds %class.Ui_SaveMeshAttributesDialog, ptr %123, i32 0, i32 41
  %125 = load ptr, ptr %124, align 8
  %126 = call noundef zeroext i1 @_ZNK15QAbstractButton9isCheckedEv(ptr noundef nonnull align 8 dereferenceable(48) %125)
  br i1 %126, label %127, label %130

127:                                              ; preds = %121
  %128 = load i32, ptr %3, align 4
  %129 = or i32 %128, 32768
  store i32 %129, ptr %3, align 4
  br label %130

130:                                              ; preds = %127, %121
  %131 = getelementptr inbounds %class.SaveMeshAttributesDialog, ptr %4, i32 0, i32 1
  %132 = load ptr, ptr %131, align 8
  %133 = getelementptr inbounds %class.Ui_SaveMeshAttributesDialog, ptr %132, i32 0, i32 42
  %134 = load ptr, ptr %133, align 8
  %135 = call noundef zeroext i1 @_ZNK15QAbstractButton9isCheckedEv(ptr noundef nonnull align 8 dereferenceable(48) %134)
  br i1 %135, label %136, label %139

136:                                              ; preds = %130
  %137 = load i32, ptr %3, align 4
  %138 = or i32 %137, 131072
  store i32 %138, ptr %3, align 4
  br label %139

139:                                              ; preds = %136, %130
  %140 = load i32, ptr %3, align 4
  %141 = getelementptr inbounds %class.SaveMeshAttributesDialog, ptr %4, i32 0, i32 5
  store i32 %140, ptr %141, align 8
  ret void
}