; Function Attrs: mustprogress uwtable
define void @_ZN24SaveMeshAttributesDialog10updateMaskEv(ptr nocapture noundef nonnull align 8 dereferenceable(144) %0) local_unnamed_addr #9 align 2 {
  %2 = getelementptr inbounds i8, ptr %0, i64 48
  %3 = load ptr, ptr %2, align 8
  %4 = getelementptr inbounds i8, ptr %3, i64 32
  %5 = load ptr, ptr %4, align 8
  %6 = tail call noundef zeroext i1 @_ZNK15QAbstractButton9isCheckedEv(ptr noundef nonnull align 8 dereferenceable(48) %5)
  %spec.select = select i1 %6, i32 2, i32 0
  %7 = load ptr, ptr %2, align 8
  %8 = getelementptr inbounds i8, ptr %7, i64 40
  %9 = load ptr, ptr %8, align 8
  %10 = tail call noundef zeroext i1 @_ZNK15QAbstractButton9isCheckedEv(ptr noundef nonnull align 8 dereferenceable(48) %9)
  %11 = or disjoint i32 %spec.select, 4
  %.1 = select i1 %10, i32 %11, i32 %spec.select
  %12 = load ptr, ptr %2, align 8
  %13 = getelementptr inbounds i8, ptr %12, i64 48
  %14 = load ptr, ptr %13, align 8
  %15 = tail call noundef zeroext i1 @_ZNK15QAbstractButton9isCheckedEv(ptr noundef nonnull align 8 dereferenceable(48) %14)
  %16 = or disjoint i32 %.1, 8
  %.2 = select i1 %15, i32 %16, i32 %.1
  %17 = load ptr, ptr %2, align 8
  %18 = getelementptr inbounds i8, ptr %17, i64 64
  %19 = load ptr, ptr %18, align 8
  %20 = tail call noundef zeroext i1 @_ZNK15QAbstractButton9isCheckedEv(ptr noundef nonnull align 8 dereferenceable(48) %19)
  %21 = or disjoint i32 %.2, 32
  %.3 = select i1 %20, i32 %21, i32 %.2
  %22 = load ptr, ptr %2, align 8
  %23 = getelementptr inbounds i8, ptr %22, i64 56
  %24 = load ptr, ptr %23, align 8
  %25 = tail call noundef zeroext i1 @_ZNK15QAbstractButton9isCheckedEv(ptr noundef nonnull align 8 dereferenceable(48) %24)
  %26 = or i32 %.3, 16
  %.4 = select i1 %25, i32 %26, i32 %.3
  %27 = load ptr, ptr %2, align 8
  %28 = getelementptr inbounds i8, ptr %27, i64 72
  %29 = load ptr, ptr %28, align 8
  %30 = tail call noundef zeroext i1 @_ZNK15QAbstractButton9isCheckedEv(ptr noundef nonnull align 8 dereferenceable(48) %29)
  %31 = or i32 %.4, 65536
  %.5 = select i1 %30, i32 %31, i32 %.4
  %32 = load ptr, ptr %2, align 8
  %33 = getelementptr inbounds i8, ptr %32, i64 104
  %34 = load ptr, ptr %33, align 8
  %35 = tail call noundef zeroext i1 @_ZNK15QAbstractButton9isCheckedEv(ptr noundef nonnull align 8 dereferenceable(48) %34)
  %36 = or i32 %.5, 128
  %.6 = select i1 %35, i32 %36, i32 %.5
  %37 = load ptr, ptr %2, align 8
  %38 = getelementptr inbounds i8, ptr %37, i64 112
  %39 = load ptr, ptr %38, align 8
  %40 = tail call noundef zeroext i1 @_ZNK15QAbstractButton9isCheckedEv(ptr noundef nonnull align 8 dereferenceable(48) %39)
  %41 = or i32 %.6, 256
  %.7 = select i1 %40, i32 %41, i32 %.6
  %42 = load ptr, ptr %2, align 8
  %43 = getelementptr inbounds i8, ptr %42, i64 120
  %44 = load ptr, ptr %43, align 8
  %45 = tail call noundef zeroext i1 @_ZNK15QAbstractButton9isCheckedEv(ptr noundef nonnull align 8 dereferenceable(48) %44)
  %46 = or i32 %.7, 512
  %.8 = select i1 %45, i32 %46, i32 %.7
  %47 = load ptr, ptr %2, align 8
  %48 = getelementptr inbounds i8, ptr %47, i64 128
  %49 = load ptr, ptr %48, align 8
  %50 = tail call noundef zeroext i1 @_ZNK15QAbstractButton9isCheckedEv(ptr noundef nonnull align 8 dereferenceable(48) %49)
  %51 = or i32 %.8, 1024
  %.9 = select i1 %50, i32 %51, i32 %.8
  %52 = load ptr, ptr %2, align 8
  %53 = getelementptr inbounds i8, ptr %52, i64 160
  %54 = load ptr, ptr %53, align 8
  %55 = tail call noundef zeroext i1 @_ZNK15QAbstractButton9isCheckedEv(ptr noundef nonnull align 8 dereferenceable(48) %54)
  %56 = or i32 %.9, 2048
  %.10 = select i1 %55, i32 %56, i32 %.9
  %57 = load ptr, ptr %2, align 8
  %58 = getelementptr inbounds i8, ptr %57, i64 176
  %59 = load ptr, ptr %58, align 8
  %60 = tail call noundef zeroext i1 @_ZNK15QAbstractButton9isCheckedEv(ptr noundef nonnull align 8 dereferenceable(48) %59)
  %61 = or i32 %.10, 4096
  %.11 = select i1 %60, i32 %61, i32 %.10
  %62 = load ptr, ptr %2, align 8
  %63 = getelementptr inbounds i8, ptr %62, i64 168
  %64 = load ptr, ptr %63, align 8
  %65 = tail call noundef zeroext i1 @_ZNK15QAbstractButton9isCheckedEv(ptr noundef nonnull align 8 dereferenceable(48) %64)
  %66 = or i32 %.11, 16384
  %.12 = select i1 %65, i32 %66, i32 %.11
  %67 = load ptr, ptr %2, align 8
  %68 = getelementptr inbounds i8, ptr %67, i64 328
  %69 = load ptr, ptr %68, align 8
  %70 = tail call noundef zeroext i1 @_ZNK15QAbstractButton9isCheckedEv(ptr noundef nonnull align 8 dereferenceable(48) %69)
  %71 = or i32 %.12, 32768
  %.13 = select i1 %70, i32 %71, i32 %.12
  %72 = load ptr, ptr %2, align 8
  %73 = getelementptr inbounds i8, ptr %72, i64 336
  %74 = load ptr, ptr %73, align 8
  %75 = tail call noundef zeroext i1 @_ZNK15QAbstractButton9isCheckedEv(ptr noundef nonnull align 8 dereferenceable(48) %74)
  %76 = or i32 %.13, 131072
  %.14 = select i1 %75, i32 %76, i32 %.13
  %77 = getelementptr inbounds i8, ptr %0, i64 72
  store i32 %.14, ptr %77, align 8
  ret void
}